target datalayout = "e-m:e-p270:32:32-p271:32:32-p272:64:64-i64:64-i128:128-f80:128-n8:16:32:64-S128"
target triple = "x86_64-pc-linux-gnu"

@_ZZN2cv6detail14depthToString_EiE10depthNames = internal global [8 x ptr] [ptr @.str.2, ptr @.str.3, ptr @.str.4, ptr @.str.5, ptr @.str.6, ptr @.str.7, ptr @.str.8, ptr @.str.9], align 16

; Function Attrs: mustprogress nounwind uwtable
define noundef ptr @_ZN2cv6detail14depthToString_Ei(i32 noundef %0) #2 {
  %2 = alloca i32, align 4
  store i32 %0, ptr %2, align 4, !tbaa !3
  %3 = load i32, ptr %2, align 4, !tbaa !3
  %4 = icmp sle i32 %3, 7
  br i1 %4, label %5, label %13

5:                                                ; preds = %1
  %6 = load i32, ptr %2, align 4, !tbaa !3
  %7 = icmp sge i32 %6, 0
  br i1 %7, label %8, label %13

8:                                                ; preds = %5
  %9 = load i32, ptr %2, align 4, !tbaa !3
  %10 = sext i32 %9 to i64
  %11 = getelementptr inbounds [8 x ptr], ptr @_ZZN2cv6detail14depthToString_EiE10depthNames, i64 0, i64 %10
  %12 = load ptr, ptr %11, align 8, !tbaa !7
  br label %14

13:                                               ; preds = %5, %1
  br label %14

14:                                               ; preds = %13, %8
  %15 = phi ptr [ %12, %8 ], [ null, %13 ]
  ret ptr %15
}